#include <math.h>
#include <stdio.h>
#include <stdlib.h>
#include <string.h>

int main(){
    int n;
    scanf("%d",&n);
    char pd[n][256];
    char A,T,C,G;
    for (int i=0;i<n;i++){
        scanf("%s",(pd[i]));
        for(int m=0;pd[i][m]!='\0';m++){
            if (pd[i][m]=='A'){
             pd[i][m]='T';  
            }else if(pd[i][m]=='T'){
             pd[i][m]='A';   
            }else if(pd[i][m]=='C'){
                pd[i][m]='G';
            }else if(pd[i][m]=='G'){
                pd[i][m]='C';
            }
        }
    }
    for (int i=0;i<n;i++){
    printf("%s\n",pd[i]);
    }
    return 0;
}

